; Function Attrs: mustprogress uwtable
define hidden range(i32 -16, 1) i32 @mbedtls_mpi_lset(ptr noundef captures(none) %0, i64 noundef %1) local_unnamed_addr #1 {
  %3 = getelementptr inbounds nuw i8, ptr %0, i64 8
  %4 = load i64, ptr %3, align 8, !tbaa !12
  %5 = icmp eq i64 %4, 0
  br i1 %5, label %7, label %._crit_edge

._crit_edge:                                      ; preds = %2
  %.phi.trans.insert = getelementptr inbounds nuw i8, ptr %0, i64 16
  %.pre = load ptr, ptr %.phi.trans.insert, align 8, !tbaa !11
  %6 = shl i64 %4, 3
  br label %16

7:                                                ; preds = %2
  %8 = tail call noalias dereferenceable_or_null(8) ptr @calloc(i64 noundef 1, i64 noundef 8) #16
  %9 = icmp eq ptr %8, null
  br i1 %9, label %mbedtls_mpi_grow.exit, label %10

10:                                               ; preds = %7
  %11 = getelementptr inbounds nuw i8, ptr %0, i64 16
  %12 = load ptr, ptr %11, align 8, !tbaa !11
  %.not.i = icmp eq ptr %12, null
  br i1 %.not.i, label %15, label %13

13:                                               ; preds = %10
  tail call void @mbedtls_platform_zeroize(ptr noundef nonnull %12, i64 noundef 0)
  %14 = load ptr, ptr %11, align 8, !tbaa !11
  tail call void @free(ptr noundef %14) #15
  br label %15

15:                                               ; preds = %13, %10
  store i64 1, ptr %3, align 8, !tbaa !12
  store ptr %8, ptr %11, align 8, !tbaa !11
  br label %16

16:                                               ; preds = %._crit_edge, %15
  %17 = phi i64 [ %6, %._crit_edge ], [ 8, %15 ]
  %18 = phi ptr [ %.pre, %._crit_edge ], [ %8, %15 ]
  %19 = getelementptr inbounds nuw i8, ptr %0, i64 16
  tail call void @llvm.memset.p0.i64(ptr align 8 %18, i8 0, i64 %17, i1 false)
  %20 = icmp slt i64 %1, 0
  %21 = tail call i64 @llvm.abs.i64(i64 %1, i1 true)
  %22 = load ptr, ptr %19, align 8, !tbaa !11
  store i64 %21, ptr %22, align 8, !tbaa !13
  %23 = select i1 %20, i32 -1, i32 1
  store i32 %23, ptr %0, align 8, !tbaa !3
  br label %mbedtls_mpi_grow.exit

mbedtls_mpi_grow.exit:                            ; preds = %7, %16
  %.0.i11 = phi i32 [ 0, %16 ], [ -16, %7 ]
  ret i32 %.0.i11
}